target datalayout = "e-m:e-p270:32:32-p271:32:32-p272:64:64-i64:64-i128:128-f80:128-n8:16:32:64-S128"
target triple = "x86_64-pc-linux-gnu"

%"struct.icu_77::UCharNames" = type { i32, i32, i32, i32 }
%"struct.icu_77::AlgorithmicRange" = type { i32, i32, i8, i8, i16 }

@_ZN6icu_77L10uCharNamesE = internal global ptr null, align 8

; Function Attrs: inlinehint mustprogress nounwind uwtable
define internal noundef signext i8 @_ZL9U_FAILURE10UErrorCode(i32 noundef %0) #2 {
  %2 = alloca i32, align 4
  store i32 %0, ptr %2, align 4, !tbaa !13
  %3 = load i32, ptr %2, align 4, !tbaa !13
  %4 = icmp sgt i32 %3, 0
  %5 = zext i1 %4 to i8
  ret i8 %5
}

; Function Attrs: mustprogress uwtable
define i32 @u_charName_77(i32 noundef %0, i32 noundef %1, ptr noundef %2, i32 noundef %3, ptr noundef %4) #0 {
  %6 = alloca i32, align 4
  %7 = alloca i32, align 4
  %8 = alloca i32, align 4
  %9 = alloca ptr, align 8
  %10 = alloca i32, align 4
  %11 = alloca ptr, align 8
  %12 = alloca ptr, align 8
  %13 = alloca ptr, align 8
  %14 = alloca i32, align 4
  %15 = alloca i32, align 4
  %16 = alloca i32, align 4
  store i32 %0, ptr %7, align 4, !tbaa !3
  store i32 %1, ptr %8, align 4, !tbaa !7
  store ptr %2, ptr %9, align 8, !tbaa !9
  store i32 %3, ptr %10, align 4, !tbaa !3
  store ptr %4, ptr %11, align 8, !tbaa !12
  call void @llvm.lifetime.start.p0(i64 8, ptr %12) #12
  call void @llvm.lifetime.start.p0(i64 8, ptr %13) #12
  call void @llvm.lifetime.start.p0(i64 4, ptr %14) #12
  call void @llvm.lifetime.start.p0(i64 4, ptr %15) #12
  %17 = load ptr, ptr %11, align 8, !tbaa !12
  %18 = icmp eq ptr %17, null
  br i1 %18, label %24, label %19

19:                                               ; preds = %5
  %20 = load ptr, ptr %11, align 8, !tbaa !12
  %21 = load i32, ptr %20, align 4, !tbaa !13
  %22 = call noundef signext i8 @_ZL9U_FAILURE10UErrorCode(i32 noundef %21)
  %23 = icmp ne i8 %22, 0
  br i1 %23, label %24, label %25

24:                                               ; preds = %19, %5
  store i32 0, ptr %6, align 4
  store i32 1, ptr %16, align 4
  br label %137

25:                                               ; preds = %19
  %26 = load i32, ptr %8, align 4, !tbaa !7
  %27 = icmp sge i32 %26, 4
  br i1 %27, label %37, label %28

28:                                               ; preds = %25
  %29 = load i32, ptr %10, align 4, !tbaa !3
  %30 = icmp slt i32 %29, 0
  br i1 %30, label %37, label %31

31:                                               ; preds = %28
  %32 = load i32, ptr %10, align 4, !tbaa !3
  %33 = icmp sgt i32 %32, 0
  br i1 %33, label %34, label %39

34:                                               ; preds = %31
  %35 = load ptr, ptr %9, align 8, !tbaa !9
  %36 = icmp eq ptr %35, null
  br i1 %36, label %37, label %39

37:                                               ; preds = %34, %28, %25
  %38 = load ptr, ptr %11, align 8, !tbaa !12
  store i32 1, ptr %38, align 4, !tbaa !13
  store i32 0, ptr %6, align 4
  store i32 1, ptr %16, align 4
  br label %137

39:                                               ; preds = %34, %31
  br label %40

40:                                               ; preds = %39
  %41 = load i32, ptr %7, align 4, !tbaa !3
  %42 = icmp ugt i32 %41, 1114111
  br i1 %42, label %47, label %43

43:                                               ; preds = %40
  %44 = load ptr, ptr %11, align 8, !tbaa !12
  %45 = call noundef signext i8 @_ZN6icu_77L12isDataLoadedEP10UErrorCode(ptr noundef %44)
  %46 = icmp ne i8 %45, 0
  br i1 %46, label %52, label %47

47:                                               ; preds = %43, %40
  %48 = load ptr, ptr %9, align 8, !tbaa !9
  %49 = load i32, ptr %10, align 4, !tbaa !3
  %50 = load ptr, ptr %11, align 8, !tbaa !12
  %51 = call i32 @u_terminateChars_77(ptr noundef %48, i32 noundef %49, i32 noundef 0, ptr noundef %50)
  store i32 %51, ptr %6, align 4
  store i32 1, ptr %16, align 4
  br label %137

52:                                               ; preds = %43
  store i32 0, ptr %15, align 4, !tbaa !3
  %53 = load ptr, ptr @_ZN6icu_77L10uCharNamesE, align 8, !tbaa !12
  %54 = load ptr, ptr @_ZN6icu_77L10uCharNamesE, align 8, !tbaa !12
  %55 = getelementptr inbounds nuw %"struct.icu_77::UCharNames", ptr %54, i32 0, i32 3
  %56 = load i32, ptr %55, align 4, !tbaa !15
  %57 = zext i32 %56 to i64
  %58 = getelementptr inbounds nuw i8, ptr %53, i64 %57
  store ptr %58, ptr %13, align 8, !tbaa !17
  %59 = load ptr, ptr %13, align 8, !tbaa !17
  %60 = load i32, ptr %59, align 4, !tbaa !3
  store i32 %60, ptr %14, align 4, !tbaa !3
  %61 = load ptr, ptr %13, align 8, !tbaa !17
  %62 = getelementptr inbounds i32, ptr %61, i64 1
  store ptr %62, ptr %12, align 8, !tbaa !12
  br label %63

63:                                               ; preds = %87, %52
  %64 = load i32, ptr %14, align 4, !tbaa !3
  %65 = icmp ugt i32 %64, 0
  br i1 %65, label %66, label %97

66:                                               ; preds = %63
  %67 = load ptr, ptr %12, align 8, !tbaa !12
  %68 = getelementptr inbounds nuw %"struct.icu_77::AlgorithmicRange", ptr %67, i32 0, i32 0
  %69 = load i32, ptr %68, align 4, !tbaa !19
  %70 = load i32, ptr %7, align 4, !tbaa !3
  %71 = icmp ule i32 %69, %70
  br i1 %71, label %72, label %87

72:                                               ; preds = %66
  %73 = load i32, ptr %7, align 4, !tbaa !3
  %74 = load ptr, ptr %12, align 8, !tbaa !12
  %75 = getelementptr inbounds nuw %"struct.icu_77::AlgorithmicRange", ptr %74, i32 0, i32 1
  %76 = load i32, ptr %75, align 4, !tbaa !22
  %77 = icmp ule i32 %73, %76
  br i1 %77, label %78, label %87

78:                                               ; preds = %72
  %79 = load ptr, ptr %12, align 8, !tbaa !12
  %80 = load i32, ptr %7, align 4, !tbaa !3
  %81 = load i32, ptr %8, align 4, !tbaa !7
  %82 = load ptr, ptr %9, align 8, !tbaa !9
  %83 = load i32, ptr %10, align 4, !tbaa !3
  %84 = trunc i32 %83 to i16
  %85 = call noundef zeroext i16 @_ZN6icu_77L10getAlgNameEPNS_16AlgorithmicRangeEj15UCharNameChoicePct(ptr noundef %79, i32 noundef %80, i32 noundef %81, ptr noundef %82, i16 noundef zeroext %84)
  %86 = zext i16 %85 to i32
  store i32 %86, ptr %15, align 4, !tbaa !3
  br label %97

87:                                               ; preds = %72, %66
  %88 = load ptr, ptr %12, align 8, !tbaa !12
  %89 = load ptr, ptr %12, align 8, !tbaa !12
  %90 = getelementptr inbounds nuw %"struct.icu_77::AlgorithmicRange", ptr %89, i32 0, i32 4
  %91 = load i16, ptr %90, align 2, !tbaa !23
  %92 = zext i16 %91 to i32
  %93 = sext i32 %92 to i64
  %94 = getelementptr inbounds i8, ptr %88, i64 %93
  store ptr %94, ptr %12, align 8, !tbaa !12
  %95 = load i32, ptr %14, align 4, !tbaa !3
  %96 = add i32 %95, -1
  store i32 %96, ptr %14, align 4, !tbaa !3
  br label %63, !llvm.loop !24

97:                                               ; preds = %78, %63
  %98 = load i32, ptr %14, align 4, !tbaa !3
  %99 = icmp eq i32 %98, 0
  br i1 %99, label %100, label %131

100:                                              ; preds = %97
  %101 = load i32, ptr %8, align 4, !tbaa !7
  %102 = icmp eq i32 %101, 2
  br i1 %102, label %103, label %121

103:                                              ; preds = %100
  %104 = load ptr, ptr @_ZN6icu_77L10uCharNamesE, align 8, !tbaa !12
  %105 = load i32, ptr %7, align 4, !tbaa !3
  %106 = load ptr, ptr %9, align 8, !tbaa !9
  %107 = load i32, ptr %10, align 4, !tbaa !3
  %108 = trunc i32 %107 to i16
  %109 = call noundef zeroext i16 @_ZN6icu_77L7getNameEPNS_10UCharNamesEj15UCharNameChoicePct(ptr noundef %104, i32 noundef %105, i32 noundef 2, ptr noundef %106, i16 noundef zeroext %108)
  %110 = zext i16 %109 to i32
  store i32 %110, ptr %15, align 4, !tbaa !3
  %111 = load i32, ptr %15, align 4, !tbaa !3
  %112 = icmp ne i32 %111, 0
  br i1 %112, label %120, label %113

113:                                              ; preds = %103
  %114 = load i32, ptr %7, align 4, !tbaa !3
  %115 = load ptr, ptr %9, align 8, !tbaa !9
  %116 = load i32, ptr %10, align 4, !tbaa !3
  %117 = trunc i32 %116 to i16
  %118 = call noundef zeroext i16 @_ZN6icu_77L10getExtNameEjPct(i32 noundef %114, ptr noundef %115, i16 noundef zeroext %117)
  %119 = zext i16 %118 to i32
  store i32 %119, ptr %15, align 4, !tbaa !3
  br label %120

120:                                              ; preds = %113, %103
  br label %130

121:                                              ; preds = %100
  %122 = load ptr, ptr @_ZN6icu_77L10uCharNamesE, align 8, !tbaa !12
  %123 = load i32, ptr %7, align 4, !tbaa !3
  %124 = load i32, ptr %8, align 4, !tbaa !7
  %125 = load ptr, ptr %9, align 8, !tbaa !9
  %126 = load i32, ptr %10, align 4, !tbaa !3
  %127 = trunc i32 %126 to i16
  %128 = call noundef zeroext i16 @_ZN6icu_77L7getNameEPNS_10UCharNamesEj15UCharNameChoicePct(ptr noundef %122, i32 noundef %123, i32 noundef %124, ptr noundef %125, i16 noundef zeroext %127)
  %129 = zext i16 %128 to i32
  store i32 %129, ptr %15, align 4, !tbaa !3
  br label %130

130:                                              ; preds = %121, %120
  br label %131

131:                                              ; preds = %130, %97
  %132 = load ptr, ptr %9, align 8, !tbaa !9
  %133 = load i32, ptr %10, align 4, !tbaa !3
  %134 = load i32, ptr %15, align 4, !tbaa !3
  %135 = load ptr, ptr %11, align 8, !tbaa !12
  %136 = call i32 @u_terminateChars_77(ptr noundef %132, i32 noundef %133, i32 noundef %134, ptr noundef %135)
  store i32 %136, ptr %6, align 4
  store i32 1, ptr %16, align 4
  br label %137

137:                                              ; preds = %131, %47, %37, %24
  call void @llvm.lifetime.end.p0(i64 4, ptr %15) #12
  call void @llvm.lifetime.end.p0(i64 4, ptr %14) #12
  call void @llvm.lifetime.end.p0(i64 8, ptr %13) #12
  call void @llvm.lifetime.end.p0(i64 8, ptr %12) #12
  %138 = load i32, ptr %6, align 4
  ret i32 %138
}