; Function Attrs: mustprogress uwtable
define i32 @u_charName_77(i32 noundef %0, i32 noundef %1, ptr noundef %2, i32 noundef %3, ptr noundef %4) local_unnamed_addr #0 {
  %6 = icmp eq ptr %4, null
  br i1 %6, label %54, label %7

7:                                                ; preds = %5
  %8 = load i32, ptr %4, align 4, !tbaa !3
  %9 = icmp slt i32 %8, 1
  br i1 %9, label %10, label %54

10:                                               ; preds = %7
  %11 = icmp sgt i32 %1, 3
  %12 = icmp slt i32 %3, 0
  %or.cond = or i1 %11, %12
  br i1 %or.cond, label %16, label %13

13:                                               ; preds = %10
  %14 = icmp ne i32 %3, 0
  %15 = icmp eq ptr %2, null
  %or.cond3 = and i1 %15, %14
  br i1 %or.cond3, label %16, label %17

16:                                               ; preds = %13, %10
  store i32 1, ptr %4, align 4, !tbaa !3
  br label %54

17:                                               ; preds = %13
  %18 = icmp ugt i32 %0, 1114111
  br i1 %18, label %21, label %19

19:                                               ; preds = %17
  %20 = tail call fastcc noundef signext i8 @_ZN6icu_77L12isDataLoadedEP10UErrorCode(ptr noundef %4)
  %.not55 = icmp eq i8 %20, 0
  br i1 %.not55, label %21, label %23

21:                                               ; preds = %19, %17
  %22 = tail call i32 @u_terminateChars_77(ptr noundef %2, i32 noundef %3, i32 noundef 0, ptr noundef nonnull %4)
  br label %54

23:                                               ; preds = %19
  %24 = load ptr, ptr @_ZN6icu_77L10uCharNamesE, align 8, !tbaa !7
  %25 = getelementptr inbounds nuw i8, ptr %24, i64 12
  %26 = load i32, ptr %25, align 4, !tbaa !9
  %27 = zext i32 %26 to i64
  %28 = getelementptr inbounds nuw i8, ptr %24, i64 %27
  %29 = load i32, ptr %28, align 4, !tbaa !12
  %.not5662 = icmp eq i32 %29, 0
  br i1 %.not5662, label %._crit_edge, label %.lr.ph.preheader

.lr.ph.preheader:                                 ; preds = %23
  %30 = getelementptr inbounds nuw i8, ptr %28, i64 4
  br label %.lr.ph

.lr.ph:                                           ; preds = %.lr.ph.preheader, %35
  %.04764 = phi i32 [ %40, %35 ], [ %29, %.lr.ph.preheader ]
  %.04963 = phi ptr [ %39, %35 ], [ %30, %.lr.ph.preheader ]
  %31 = load i32, ptr %.04963, align 4, !tbaa !13
  %.not57 = icmp ugt i32 %31, %0
  br i1 %.not57, label %35, label %32

32:                                               ; preds = %.lr.ph
  %33 = getelementptr inbounds nuw i8, ptr %.04963, i64 4
  %34 = load i32, ptr %33, align 4, !tbaa !16
  %.not58 = icmp ugt i32 %0, %34
  br i1 %.not58, label %35, label %41

35:                                               ; preds = %32, %.lr.ph
  %36 = getelementptr inbounds nuw i8, ptr %.04963, i64 10
  %37 = load i16, ptr %36, align 2, !tbaa !17
  %38 = zext i16 %37 to i64
  %39 = getelementptr inbounds nuw i8, ptr %.04963, i64 %38
  %40 = add i32 %.04764, -1
  %.not56 = icmp eq i32 %40, 0
  br i1 %.not56, label %._crit_edge, label %.lr.ph, !llvm.loop !18

41:                                               ; preds = %32
  %42 = trunc i32 %3 to i16
  %43 = tail call fastcc noundef zeroext i16 @_ZN6icu_77L10getAlgNameEPNS_16AlgorithmicRangeEj15UCharNameChoicePct(ptr noundef nonnull %.04963, i32 noundef %0, i32 noundef %1, ptr noundef %2, i16 noundef zeroext %42)
  br label %52

._crit_edge:                                      ; preds = %35, %23
  %44 = icmp eq i32 %1, 2
  %45 = trunc i32 %3 to i16
  br i1 %44, label %46, label %50

46:                                               ; preds = %._crit_edge
  %47 = tail call fastcc noundef zeroext i16 @_ZN6icu_77L7getNameEPNS_10UCharNamesEj15UCharNameChoicePct(ptr noundef %24, i32 noundef %0, i32 noundef 2, ptr noundef %2, i16 noundef zeroext %45)
  %.not59 = icmp eq i16 %47, 0
  br i1 %.not59, label %48, label %52

48:                                               ; preds = %46
  %49 = tail call fastcc noundef zeroext i16 @_ZN6icu_77L10getExtNameEjPct(i32 noundef %0, ptr noundef %2, i16 noundef zeroext %45)
  br label %52

50:                                               ; preds = %._crit_edge
  %51 = tail call fastcc noundef zeroext i16 @_ZN6icu_77L7getNameEPNS_10UCharNamesEj15UCharNameChoicePct(ptr noundef %24, i32 noundef %0, i32 noundef %1, ptr noundef %2, i16 noundef zeroext %45)
  br label %52

52:                                               ; preds = %41, %50, %48, %46
  %.1.in = phi i16 [ %47, %46 ], [ %49, %48 ], [ %51, %50 ], [ %43, %41 ]
  %.1 = zext i16 %.1.in to i32
  %53 = tail call i32 @u_terminateChars_77(ptr noundef %2, i32 noundef %3, i32 noundef %.1, ptr noundef nonnull %4)
  br label %54

54:                                               ; preds = %5, %7, %52, %21, %16
  %.048 = phi i32 [ 0, %16 ], [ %22, %21 ], [ %53, %52 ], [ 0, %7 ], [ 0, %5 ]
  ret i32 %.048
}